; Function Attrs: mustprogress uwtable
define noundef zeroext i1 @_ZN5folly11compareJsonENS_5RangeIPKcEES3_(ptr %0, ptr %1, ptr %2, ptr %3) local_unnamed_addr #3 personality ptr @__gxx_personality_v0 {
  %5 = alloca %"struct.folly::dynamic", align 8
  %6 = alloca %"struct.folly::dynamic", align 8
  call void @llvm.lifetime.start.p0(i64 40, ptr nonnull %5) #24
  call void @_ZN5folly9parseJsonENS_5RangeIPKcEE(ptr dead_on_unwind nonnull writable sret(%"struct.folly::dynamic") align 8 %5, ptr %0, ptr %1)
  call void @llvm.lifetime.start.p0(i64 40, ptr nonnull %6) #24
  invoke void @_ZN5folly9parseJsonENS_5RangeIPKcEE(ptr dead_on_unwind nonnull writable sret(%"struct.folly::dynamic") align 8 %6, ptr %2, ptr %3)
          to label %7 unwind label %10

7:                                                ; preds = %4
  %8 = invoke noundef zeroext i1 @_ZN5follyeqERKNS_7dynamicES2_(ptr noundef nonnull align 8 dereferenceable(40) %5, ptr noundef nonnull align 8 dereferenceable(40) %6)
          to label %9 unwind label %12

9:                                                ; preds = %7
  call void @_ZN5folly7dynamic7destroyEv(ptr noundef nonnull align 8 dereferenceable(40) %6) #24
  call void @llvm.lifetime.end.p0(i64 40, ptr nonnull %6) #24
  call void @_ZN5folly7dynamic7destroyEv(ptr noundef nonnull align 8 dereferenceable(40) %5) #24
  call void @llvm.lifetime.end.p0(i64 40, ptr nonnull %5) #24
  ret i1 %8

10:                                               ; preds = %4
  %11 = landingpad { ptr, i32 }
          cleanup
  br label %14

12:                                               ; preds = %7
  %13 = landingpad { ptr, i32 }
          cleanup
  call void @_ZN5folly7dynamic7destroyEv(ptr noundef nonnull align 8 dereferenceable(40) %6) #24
  br label %14

14:                                               ; preds = %12, %10
  %.pn = phi { ptr, i32 } [ %13, %12 ], [ %11, %10 ]
  call void @llvm.lifetime.end.p0(i64 40, ptr nonnull %6) #24
  call void @_ZN5folly7dynamic7destroyEv(ptr noundef nonnull align 8 dereferenceable(40) %5) #24
  call void @llvm.lifetime.end.p0(i64 40, ptr nonnull %5) #24
  resume { ptr, i32 } %.pn
}